target datalayout = "e-m:e-p270:32:32-p271:32:32-p272:64:64-i64:64-i128:128-f80:128-n8:16:32:64-S128"
target triple = "x86_64-pc-linux-gnu"

%"class.VrmlTranslator::Parser" = type { i32, ptr, i32, i32, ptr, ptr, ptr, ptr, ptr, %"class.std::map", %"class.std::set", %"class.std::set" }
%"class.std::map" = type { %"class.std::_Rb_tree" }
%"class.std::_Rb_tree" = type { %"struct.std::_Rb_tree<QString, std::pair<const QString, QString>, std::_Select1st<std::pair<const QString, QString>>, std::less<QString>>::_Rb_tree_impl" }
%"struct.std::_Rb_tree<QString, std::pair<const QString, QString>, std::_Select1st<std::pair<const QString, QString>>, std::less<QString>>::_Rb_tree_impl" = type { %"struct.std::_Rb_tree_key_compare", %"struct.std::_Rb_tree_header" }
%"struct.std::_Rb_tree_key_compare" = type { %"struct.std::less" }
%"struct.std::less" = type { i8 }
%"struct.std::_Rb_tree_header" = type { %"struct.std::_Rb_tree_node_base", i64 }
%"struct.std::_Rb_tree_node_base" = type { i32, ptr, ptr, ptr }
%"class.std::set" = type { %"class.std::_Rb_tree.0" }
%"class.std::_Rb_tree.0" = type { %"struct.std::_Rb_tree<QString, QString, std::_Identity<QString>, std::less<QString>>::_Rb_tree_impl" }
%"struct.std::_Rb_tree<QString, QString, std::_Identity<QString>, std::less<QString>>::_Rb_tree_impl" = type { %"struct.std::_Rb_tree_key_compare", %"struct.std::_Rb_tree_header" }
%"class.VrmlTranslator::Token" = type { i32, i32, i32, i32, ptr, ptr }

; Function Attrs: mustprogress uwtable
define void @_ZN14VrmlTranslator6Parser6SynErrEi(ptr noundef nonnull align 8 dereferenceable(208) %0, i32 noundef %1) #0 align 2 {
  %3 = alloca ptr, align 8
  %4 = alloca i32, align 4
  store ptr %0, ptr %3, align 8
  store i32 %1, ptr %4, align 4
  %5 = load ptr, ptr %3, align 8
  %6 = getelementptr inbounds %"class.VrmlTranslator::Parser", ptr %5, i32 0, i32 2
  %7 = load i32, ptr %6, align 8
  %8 = getelementptr inbounds %"class.VrmlTranslator::Parser", ptr %5, i32 0, i32 3
  %9 = load i32, ptr %8, align 4
  %10 = icmp sge i32 %7, %9
  br i1 %10, label %11, label %23

11:                                               ; preds = %2
  %12 = getelementptr inbounds %"class.VrmlTranslator::Parser", ptr %5, i32 0, i32 5
  %13 = load ptr, ptr %12, align 8
  %14 = getelementptr inbounds %"class.VrmlTranslator::Parser", ptr %5, i32 0, i32 7
  %15 = load ptr, ptr %14, align 8
  %16 = getelementptr inbounds %"class.VrmlTranslator::Token", ptr %15, i32 0, i32 3
  %17 = load i32, ptr %16, align 4
  %18 = getelementptr inbounds %"class.VrmlTranslator::Parser", ptr %5, i32 0, i32 7
  %19 = load ptr, ptr %18, align 8
  %20 = getelementptr inbounds %"class.VrmlTranslator::Token", ptr %19, i32 0, i32 2
  %21 = load i32, ptr %20, align 8
  %22 = load i32, ptr %4, align 4
  call void @_ZN14VrmlTranslator6Errors6SynErrEiii(ptr noundef nonnull align 8 dereferenceable(16) %13, i32 noundef %17, i32 noundef %21, i32 noundef %22)
  br label %23

23:                                               ; preds = %11, %2
  %24 = getelementptr inbounds %"class.VrmlTranslator::Parser", ptr %5, i32 0, i32 2
  store i32 0, ptr %24, align 8
  ret void
}

; Function Attrs: mustprogress nounwind uwtable
define noundef zeroext i1 @_ZN14VrmlTranslator6Parser7StartOfEi(ptr noundef nonnull align 8 dereferenceable(208) %0, i32 noundef %1) #2 align 2 {
  %3 = alloca ptr, align 8
  %4 = alloca i32, align 4
  %5 = alloca i8, align 1
  %6 = alloca i8, align 1
  store ptr %0, ptr %3, align 8
  store i32 %1, ptr %4, align 4
  %7 = load ptr, ptr %3, align 8
  store i8 1, ptr %5, align 1
  store i8 0, ptr %6, align 1
  %8 = load i32, ptr %4, align 4
  %9 = sext i32 %8 to i64
  %10 = getelementptr inbounds [12 x [87 x i8]], ptr @_ZZN14VrmlTranslator6Parser7StartOfEiE3set, i64 0, i64 %9
  %11 = getelementptr inbounds %"class.VrmlTranslator::Parser", ptr %7, i32 0, i32 7
  %12 = load ptr, ptr %11, align 8
  %13 = getelementptr inbounds %"class.VrmlTranslator::Token", ptr %12, i32 0, i32 0
  %14 = load i32, ptr %13, align 8
  %15 = sext i32 %14 to i64
  %16 = getelementptr inbounds [87 x i8], ptr %10, i64 0, i64 %15
  %17 = load i8, ptr %16, align 1
  %18 = trunc i8 %17 to i1
  ret i1 %18
}

; Function Attrs: mustprogress uwtable
define noundef zeroext i1 @_ZN14VrmlTranslator6Parser13WeakSeparatorEiii(ptr noundef nonnull align 8 dereferenceable(208) %0, i32 noundef %1, i32 noundef %2, i32 noundef %3) #0 align 2 {
  %5 = alloca i1, align 1
  %6 = alloca ptr, align 8
  %7 = alloca i32, align 4
  %8 = alloca i32, align 4
  %9 = alloca i32, align 4
  store ptr %0, ptr %6, align 8
  store i32 %1, ptr %7, align 4
  store i32 %2, ptr %8, align 4
  store i32 %3, ptr %9, align 4
  %10 = load ptr, ptr %6, align 8
  %11 = getelementptr inbounds %"class.VrmlTranslator::Parser", ptr %10, i32 0, i32 7
  %12 = load ptr, ptr %11, align 8
  %13 = getelementptr inbounds %"class.VrmlTranslator::Token", ptr %12, i32 0, i32 0
  %14 = load i32, ptr %13, align 8
  %15 = load i32, ptr %7, align 4
  %16 = icmp eq i32 %14, %15
  br i1 %16, label %17, label %18

17:                                               ; preds = %4
  call void @_ZN14VrmlTranslator6Parser3GetEv(ptr noundef nonnull align 8 dereferenceable(208) %10)
  store i1 true, ptr %5, align 1
  br label %39

18:                                               ; preds = %4
  %19 = load i32, ptr %9, align 4
  %20 = call noundef zeroext i1 @_ZN14VrmlTranslator6Parser7StartOfEi(ptr noundef nonnull align 8 dereferenceable(208) %10, i32 noundef %19)
  br i1 %20, label %21, label %22

21:                                               ; preds = %18
  store i1 false, ptr %5, align 1
  br label %39

22:                                               ; preds = %18
  %23 = load i32, ptr %7, align 4
  call void @_ZN14VrmlTranslator6Parser6SynErrEi(ptr noundef nonnull align 8 dereferenceable(208) %10, i32 noundef %23)
  br label %24

24:                                               ; preds = %35, %22
  %25 = load i32, ptr %8, align 4
  %26 = call noundef zeroext i1 @_ZN14VrmlTranslator6Parser7StartOfEi(ptr noundef nonnull align 8 dereferenceable(208) %10, i32 noundef %25)
  br i1 %26, label %32, label %27

27:                                               ; preds = %24
  %28 = load i32, ptr %9, align 4
  %29 = call noundef zeroext i1 @_ZN14VrmlTranslator6Parser7StartOfEi(ptr noundef nonnull align 8 dereferenceable(208) %10, i32 noundef %28)
  br i1 %29, label %32, label %30

30:                                               ; preds = %27
  %31 = call noundef zeroext i1 @_ZN14VrmlTranslator6Parser7StartOfEi(ptr noundef nonnull align 8 dereferenceable(208) %10, i32 noundef 0)
  br label %32

32:                                               ; preds = %30, %27, %24
  %33 = phi i1 [ true, %27 ], [ true, %24 ], [ %31, %30 ]
  %34 = xor i1 %33, true
  br i1 %34, label %35, label %36

35:                                               ; preds = %32
  call void @_ZN14VrmlTranslator6Parser3GetEv(ptr noundef nonnull align 8 dereferenceable(208) %10)
  br label %24, !llvm.loop !8

36:                                               ; preds = %32
  %37 = load i32, ptr %8, align 4
  %38 = call noundef zeroext i1 @_ZN14VrmlTranslator6Parser7StartOfEi(ptr noundef nonnull align 8 dereferenceable(208) %10, i32 noundef %37)
  store i1 %38, ptr %5, align 1
  br label %39

39:                                               ; preds = %36, %21, %17
  %40 = load i1, ptr %5, align 1
  ret i1 %40
}