; Function Attrs: mustprogress uwtable
define noundef zeroext i1 @_ZN14VrmlTranslator6Parser13WeakSeparatorEiii(ptr noundef nonnull align 8 captures(none) dereferenceable(208) %0, i32 noundef %1, i32 noundef %2, i32 noundef %3) local_unnamed_addr #0 align 2 {
  %5 = getelementptr inbounds nuw i8, ptr %0, i64 48
  %6 = load ptr, ptr %5, align 8
  %7 = load i32, ptr %6, align 8
  %8 = icmp eq i32 %7, %1
  br i1 %8, label %9, label %10

9:                                                ; preds = %4
  tail call void @_ZN14VrmlTranslator6Parser3GetEv(ptr noundef nonnull align 8 dereferenceable(208) %0)
  br label %.critedge

10:                                               ; preds = %4
  %11 = sext i32 %3 to i64
  %12 = sext i32 %7 to i64
  %13 = getelementptr inbounds [12 x [87 x i8]], ptr @_ZZN14VrmlTranslator6Parser7StartOfEiE3set, i64 0, i64 %11, i64 %12
  %14 = load i8, ptr %13, align 1
  %15 = trunc i8 %14 to i1
  br i1 %15, label %.critedge, label %16

16:                                               ; preds = %10
  %17 = getelementptr inbounds nuw i8, ptr %0, i64 16
  %18 = load i32, ptr %17, align 8
  %19 = getelementptr inbounds nuw i8, ptr %0, i64 20
  %20 = load i32, ptr %19, align 4
  %.not.i = icmp slt i32 %18, %20
  br i1 %.not.i, label %_ZN14VrmlTranslator6Parser6SynErrEi.exit, label %21

21:                                               ; preds = %16
  %22 = getelementptr inbounds nuw i8, ptr %0, i64 32
  %23 = load ptr, ptr %22, align 8
  %24 = getelementptr inbounds nuw i8, ptr %6, i64 12
  %25 = load i32, ptr %24, align 4
  %26 = getelementptr inbounds nuw i8, ptr %6, i64 8
  %27 = load i32, ptr %26, align 8
  tail call void @_ZN14VrmlTranslator6Errors6SynErrEiii(ptr noundef nonnull align 8 dereferenceable(16) %23, i32 noundef %25, i32 noundef %27, i32 noundef %1)
  %.pre = load ptr, ptr %5, align 8
  br label %_ZN14VrmlTranslator6Parser6SynErrEi.exit

_ZN14VrmlTranslator6Parser6SynErrEi.exit:         ; preds = %16, %21
  %28 = phi ptr [ %6, %16 ], [ %.pre, %21 ]
  store i32 0, ptr %17, align 8
  %29 = sext i32 %2 to i64
  %30 = load i32, ptr %28, align 8
  %31 = sext i32 %30 to i64
  %32 = getelementptr inbounds [12 x [87 x i8]], ptr @_ZZN14VrmlTranslator6Parser7StartOfEiE3set, i64 0, i64 %29, i64 %31
  %33 = load i8, ptr %32, align 1
  %34 = trunc i8 %33 to i1
  br i1 %34, label %.critedge, label %.lr.ph

.lr.ph:                                           ; preds = %_ZN14VrmlTranslator6Parser6SynErrEi.exit, %43
  %35 = phi i64 [ %46, %43 ], [ %31, %_ZN14VrmlTranslator6Parser6SynErrEi.exit ]
  %36 = getelementptr inbounds [12 x [87 x i8]], ptr @_ZZN14VrmlTranslator6Parser7StartOfEiE3set, i64 0, i64 %11, i64 %35
  %37 = load i8, ptr %36, align 1
  %38 = trunc i8 %37 to i1
  br i1 %38, label %.critedge, label %39

39:                                               ; preds = %.lr.ph
  %40 = getelementptr inbounds [12 x [87 x i8]], ptr @_ZZN14VrmlTranslator6Parser7StartOfEiE3set, i64 0, i64 0, i64 %35
  %41 = load i8, ptr %40, align 1
  %42 = trunc i8 %41 to i1
  br i1 %42, label %.critedge, label %43

43:                                               ; preds = %39
  tail call void @_ZN14VrmlTranslator6Parser3GetEv(ptr noundef nonnull align 8 dereferenceable(208) %0)
  %44 = load ptr, ptr %5, align 8
  %45 = load i32, ptr %44, align 8
  %46 = sext i32 %45 to i64
  %47 = getelementptr inbounds [12 x [87 x i8]], ptr @_ZZN14VrmlTranslator6Parser7StartOfEiE3set, i64 0, i64 %29, i64 %46
  %48 = load i8, ptr %47, align 1
  %49 = trunc i8 %48 to i1
  br i1 %49, label %.critedge, label %.lr.ph, !llvm.loop !8

.critedge:                                        ; preds = %.lr.ph, %43, %39, %_ZN14VrmlTranslator6Parser6SynErrEi.exit, %10, %9
  %.0 = phi i1 [ true, %9 ], [ false, %10 ], [ true, %_ZN14VrmlTranslator6Parser6SynErrEi.exit ], [ false, %.lr.ph ], [ true, %43 ], [ false, %39 ]
  ret i1 %.0
}